; Function Attrs: mustprogress uwtable
define noundef i64 @_ZN8proxygen10HTTP2Codec26generateCertificateRequestERN5folly10IOBufQueueEtSt10unique_ptrINS1_5IOBufESt14default_deleteIS5_EE(ptr nocapture nonnull readnone align 8 %this, ptr noundef nonnull align 8 dereferenceable(72) %writeBuf, i16 noundef zeroext %requestId, ptr nocapture noundef %certificateRequestData) unnamed_addr #3 align 2 personality ptr @__gxx_personality_v0 {
entry:
  %ref.tmp5 = alloca %"class.google::LogMessage", align 8
  %agg.tmp = alloca %"class.std::unique_ptr", align 8
  %0 = load ptr, ptr @_ZZN8proxygen10HTTP2Codec26generateCertificateRequestERN5folly10IOBufQueueEtSt10unique_ptrINS1_5IOBufESt14default_deleteIS5_EEE8vlocal__, align 8
  %cmp = icmp eq ptr %0, null
  br i1 %cmp, label %cond.true, label %cond.end

cond.true:                                        ; preds = %entry
  %call = tail call noundef zeroext i1 @_ZN6google11InitVLOG3__EPNS_8SiteFlagEPiPKci(ptr noundef nonnull @_ZZN8proxygen10HTTP2Codec26generateCertificateRequestERN5folly10IOBufQueueEtSt10unique_ptrINS1_5IOBufESt14default_deleteIS5_EEE8vlocal__, ptr noundef nonnull @_ZN3fLI7FLAGS_vE, ptr noundef nonnull @.str, i32 noundef 4)
  br i1 %call, label %cond.false4, label %cleanup.done

cond.end:                                         ; preds = %entry
  %1 = load i32, ptr %0, align 4
  %cmp2 = icmp sgt i32 %1, 3
  br i1 %cmp2, label %cond.false4, label %cleanup.done

cond.false4:                                      ; preds = %cond.true, %cond.end
  call void @_ZN6google10LogMessageC1EPKci(ptr noundef nonnull align 8 dereferenceable(96) %ref.tmp5, ptr noundef nonnull @.str, i32 noundef 1769)
  %call6 = invoke noundef nonnull align 8 dereferenceable(8) ptr @_ZN6google10LogMessage6streamEv(ptr noundef nonnull align 8 dereferenceable(96) %ref.tmp5)
          to label %invoke.cont unwind label %lpad

invoke.cont:                                      ; preds = %cond.false4
  %call8 = invoke noundef nonnull align 8 dereferenceable(8) ptr @_ZStlsISt11char_traitsIcEERSt13basic_ostreamIcT_ES5_PKc(ptr noundef nonnull align 8 dereferenceable(8) %call6, ptr noundef nonnull @.str.160)
          to label %invoke.cont7 unwind label %lpad

invoke.cont7:                                     ; preds = %invoke.cont
  %call10 = invoke noundef nonnull align 8 dereferenceable(8) ptr @_ZNSolsEt(ptr noundef nonnull align 8 dereferenceable(8) %call8, i16 noundef zeroext %requestId)
          to label %cleanup.action unwind label %lpad

cleanup.action:                                   ; preds = %invoke.cont7
  call void @_ZN6google10LogMessageD1Ev(ptr noundef nonnull align 8 dereferenceable(96) %ref.tmp5) #27
  br label %cleanup.done

cleanup.done:                                     ; preds = %cond.true, %cond.end, %cleanup.action
  %2 = load i64, ptr %certificateRequestData, align 8
  store i64 %2, ptr %agg.tmp, align 8
  store ptr null, ptr %certificateRequestData, align 8
  %call18 = invoke noundef i64 @_ZN8proxygen5http223writeCertificateRequestERN5folly10IOBufQueueEtSt10unique_ptrINS1_5IOBufESt14default_deleteIS5_EE(ptr noundef nonnull align 8 dereferenceable(72) %writeBuf, i16 noundef zeroext %requestId, ptr noundef nonnull %agg.tmp)
          to label %invoke.cont17 unwind label %lpad16

invoke.cont17:                                    ; preds = %cleanup.done
  %3 = load ptr, ptr %agg.tmp, align 8
  %cmp.not.i = icmp eq ptr %3, null
  br i1 %cmp.not.i, label %_ZNSt10unique_ptrIN5folly5IOBufESt14default_deleteIS1_EED2Ev.exit, label %_ZNKSt14default_deleteIN5folly5IOBufEEclEPS1_.exit.i

_ZNKSt14default_deleteIN5folly5IOBufEEclEPS1_.exit.i: ; preds = %invoke.cont17
  call void @_ZN5folly5IOBufD1Ev(ptr noundef nonnull align 8 dereferenceable(56) %3) #27
  call void @_ZN5folly5IOBufdlEPv(ptr noundef nonnull %3) #27
  br label %_ZNSt10unique_ptrIN5folly5IOBufESt14default_deleteIS1_EED2Ev.exit

_ZNSt10unique_ptrIN5folly5IOBufESt14default_deleteIS1_EED2Ev.exit: ; preds = %invoke.cont17, %_ZNKSt14default_deleteIN5folly5IOBufEEclEPS1_.exit.i
  ret i64 %call18

lpad:                                             ; preds = %invoke.cont7, %invoke.cont, %cond.false4
  %4 = landingpad { ptr, i32 }
          cleanup
  call void @_ZN6google10LogMessageD1Ev(ptr noundef nonnull align 8 dereferenceable(96) %ref.tmp5) #27
  br label %eh.resume

lpad16:                                           ; preds = %cleanup.done
  %5 = landingpad { ptr, i32 }
          cleanup
  call void @_ZNSt10unique_ptrIN5folly5IOBufESt14default_deleteIS1_EED2Ev(ptr noundef nonnull align 8 dereferenceable(8) %agg.tmp) #27
  br label %eh.resume

eh.resume:                                        ; preds = %lpad, %lpad16
  %.pn = phi { ptr, i32 } [ %5, %lpad16 ], [ %4, %lpad ]
  resume { ptr, i32 } %.pn
}